target datalayout = "e-m:e-p270:32:32-p271:32:32-p272:64:64-i64:64-i128:128-f80:128-n8:16:32:64-S128"
target triple = "x86_64-pc-linux-gnu"

%union.pthread_mutex_t = type { %struct.__pthread_mutex_s }
%struct.__pthread_mutex_s = type { i32, i32, i32, i32, i32, i16, i16, %struct.__pthread_internal_list }
%struct.__pthread_internal_list = type { ptr, ptr }
%struct.WOLFSSL_SESSION = type { i32, i32, %struct.wolfSSL_RefWithMutex, [32 x i8], i8, ptr, i8, i32, i32, [32 x i8], i8, [48 x i8], i16, i8, i8, i16, [20 x i8], i16, i8 }
%struct.wolfSSL_RefWithMutex = type { %union.pthread_mutex_t, i32 }
%struct.WOLFSSL_BUFFER_INFO = type { ptr, i32 }
%struct.WOLFSSL = type <{ ptr, ptr, ptr, ptr, [48 x i8], [48 x i8], ptr, ptr, ptr, ptr, ptr, ptr, ptr, ptr, ptr, ptr, ptr, ptr, ptr, i32, [4 x i8], %struct.WOLFSSL_CIPHER, ptr, %struct.Ciphers, %struct.Ciphers, [8 x i8], %struct.Buffers, ptr, ptr, %struct.WOLFSSL_ALERT_HISTORY, %struct.WOLFSSL_ALERT, i32, i32, i32, i32, i32, i32, i32, i16, [2 x i8], i32, i8, %struct.RecordLayerHeader, %struct.MsgsReceived, %struct.ProtocolVersion, %struct.ProtocolVersion, %struct.CipherSpecs, [2 x i8], %struct.Keys, %struct.Options, ptr, i8, i8, i16, [10 x i16], i8, i8, i16, i16, [38 x i8], i32, i32, [4 x i8], ptr, i8, i8, [6 x i8], ptr, ptr, i16, i8, i8, i32, i8, [3 x i8], i32, %struct.OneTimeAuth, ptr }>
%struct.WOLFSSL_CIPHER = type { i8, i8, ptr }
%struct.Ciphers = type { ptr, ptr, ptr, ptr, i8, i8 }
%struct.Buffers = type { %struct.bufferStatic, %struct.bufferStatic, %struct.WOLFSSL_BUFFER_INFO, %struct.WOLFSSL_BUFFER_INFO, %struct.WOLFSSL_BUFFER_INFO, %struct.WOLFSSL_BUFFER_INFO, i32, i32, i8, i8, i8, i8, %struct.WOLFSSL_BUFFER_INFO, %struct.WOLFSSL_BUFFER_INFO, %struct.WOLFSSL_BUFFER_INFO, %struct.WOLFSSL_BUFFER_INFO, ptr, ptr, ptr, i8, i8, i32, i32, ptr, i32, [1 x ptr] }
%struct.bufferStatic = type { [5 x i8], ptr, i32, i32, i32, i8, i8 }
%struct.WOLFSSL_ALERT_HISTORY = type { %struct.WOLFSSL_ALERT, %struct.WOLFSSL_ALERT }
%struct.WOLFSSL_ALERT = type { i32, i32 }
%struct.RecordLayerHeader = type { i8, i8, i8, [2 x i8] }
%struct.MsgsReceived = type { i32 }
%struct.ProtocolVersion = type { i8, i8 }
%struct.CipherSpecs = type { i16, i16, i16, i16, i8, i8, i8, i8, i8, i8, i8, i8 }
%struct.Keys = type { [64 x i8], [64 x i8], [32 x i8], [32 x i8], [16 x i8], [16 x i8], [8 x i8], [12 x i8], [12 x i8], i32, i32, i32, i32, i32, i32, i8, i8, i8, i8 }
%struct.Options = type { i64, i64, i8, i8, i8, i8, i8, i8, i8, i8, i8, i8, i8, i8, i8, i8, i8, i8, i8, i8, i8, i8, i8, i16, i16, i16, i16, i16, i8 }
%struct.OneTimeAuth = type { ptr, i8 }

; Function Attrs: nounwind uwtable
define i32 @wolfSSL_SetServerID(ptr noundef %0, ptr noundef %1, i32 noundef %2, i32 noundef %3) #0 {
  %5 = alloca i32, align 4
  %6 = alloca ptr, align 8
  %7 = alloca ptr, align 8
  %8 = alloca i32, align 4
  %9 = alloca i32, align 4
  %10 = alloca ptr, align 8
  %11 = alloca [20 x i8], align 16
  %12 = alloca i32, align 4
  store ptr %0, ptr %6, align 8, !tbaa !61
  store ptr %1, ptr %7, align 8, !tbaa !21
  store i32 %2, ptr %8, align 4, !tbaa !7
  store i32 %3, ptr %9, align 4, !tbaa !7
  call void @llvm.lifetime.start.p0(i64 8, ptr %10) #9
  store ptr null, ptr %10, align 8, !tbaa !53
  call void @llvm.lifetime.start.p0(i64 20, ptr %11) #9
  br label %13

13:                                               ; preds = %4
  br label %14

14:                                               ; preds = %13
  br label %15

15:                                               ; preds = %14
  %16 = load ptr, ptr %6, align 8, !tbaa !61
  %17 = icmp eq ptr %16, null
  br i1 %17, label %24, label %18

18:                                               ; preds = %15
  %19 = load ptr, ptr %7, align 8, !tbaa !21
  %20 = icmp eq ptr %19, null
  br i1 %20, label %24, label %21

21:                                               ; preds = %18
  %22 = load i32, ptr %8, align 4, !tbaa !7
  %23 = icmp sle i32 %22, 0
  br i1 %23, label %24, label %25

24:                                               ; preds = %21, %18, %15
  store i32 -173, ptr %5, align 4
  store i32 1, ptr %12, align 4
  br label %80

25:                                               ; preds = %21
  %26 = load i32, ptr %8, align 4, !tbaa !7
  %27 = icmp sgt i32 %26, 20
  br i1 %27, label %28, label %37

28:                                               ; preds = %25
  %29 = load ptr, ptr %7, align 8, !tbaa !21
  %30 = load i32, ptr %8, align 4, !tbaa !7
  %31 = getelementptr inbounds [20 x i8], ptr %11, i64 0, i64 0
  %32 = call i32 @wc_ShaHash(ptr noundef %29, i32 noundef %30, ptr noundef %31)
  %33 = icmp ne i32 %32, 0
  br i1 %33, label %34, label %35

34:                                               ; preds = %28
  store i32 0, ptr %5, align 4
  store i32 1, ptr %12, align 4
  br label %80

35:                                               ; preds = %28
  %36 = getelementptr inbounds [20 x i8], ptr %11, i64 0, i64 0
  store ptr %36, ptr %7, align 8, !tbaa !21
  store i32 20, ptr %8, align 4, !tbaa !7
  br label %37

37:                                               ; preds = %35, %25
  %38 = load i32, ptr %9, align 4, !tbaa !7
  %39 = icmp eq i32 %38, 0
  br i1 %39, label %40, label %58

40:                                               ; preds = %37
  %41 = load ptr, ptr %6, align 8, !tbaa !61
  %42 = load ptr, ptr %7, align 8, !tbaa !21
  %43 = load i32, ptr %8, align 4, !tbaa !7
  %44 = call ptr @wolfSSL_GetSessionClient(ptr noundef %41, ptr noundef %42, i32 noundef %43)
  store ptr %44, ptr %10, align 8, !tbaa !53
  %45 = load ptr, ptr %10, align 8, !tbaa !53
  %46 = icmp ne ptr %45, null
  br i1 %46, label %47, label %57

47:                                               ; preds = %40
  %48 = load ptr, ptr %6, align 8, !tbaa !61
  %49 = load ptr, ptr %10, align 8, !tbaa !53
  %50 = call i32 @wolfSSL_SetSession(ptr noundef %48, ptr noundef %49)
  %51 = icmp ne i32 %50, 1
  br i1 %51, label %52, label %56

52:                                               ; preds = %47
  br label %53

53:                                               ; preds = %52
  br label %54

54:                                               ; preds = %53
  br label %55

55:                                               ; preds = %54
  store ptr null, ptr %10, align 8, !tbaa !53
  br label %56

56:                                               ; preds = %55, %47
  br label %57

57:                                               ; preds = %56, %40
  br label %58

58:                                               ; preds = %57, %37
  %59 = load ptr, ptr %10, align 8, !tbaa !53
  %60 = icmp eq ptr %59, null
  br i1 %60, label %61, label %79

61:                                               ; preds = %58
  br label %62

62:                                               ; preds = %61
  br label %63

63:                                               ; preds = %62
  br label %64

64:                                               ; preds = %63
  %65 = load i32, ptr %8, align 4, !tbaa !7
  %66 = trunc i32 %65 to i16
  %67 = load ptr, ptr %6, align 8, !tbaa !61
  %68 = getelementptr inbounds nuw %struct.WOLFSSL, ptr %67, i32 0, i32 27
  %69 = load ptr, ptr %68, align 16, !tbaa !89
  %70 = getelementptr inbounds nuw %struct.WOLFSSL_SESSION, ptr %69, i32 0, i32 15
  store i16 %66, ptr %70, align 2, !tbaa !106
  %71 = load ptr, ptr %6, align 8, !tbaa !61
  %72 = getelementptr inbounds nuw %struct.WOLFSSL, ptr %71, i32 0, i32 27
  %73 = load ptr, ptr %72, align 16, !tbaa !89
  %74 = getelementptr inbounds nuw %struct.WOLFSSL_SESSION, ptr %73, i32 0, i32 16
  %75 = getelementptr inbounds [20 x i8], ptr %74, i64 0, i64 0
  %76 = load ptr, ptr %7, align 8, !tbaa !21
  %77 = load i32, ptr %8, align 4, !tbaa !7
  %78 = sext i32 %77 to i64
  call void @llvm.memcpy.p0.p0.i64(ptr align 4 %75, ptr align 1 %76, i64 %78, i1 false)
  br label %79

79:                                               ; preds = %64, %58
  store i32 1, ptr %5, align 4
  store i32 1, ptr %12, align 4
  br label %80

80:                                               ; preds = %79, %34, %24
  call void @llvm.lifetime.end.p0(i64 20, ptr %11) #9
  call void @llvm.lifetime.end.p0(i64 8, ptr %10) #9
  %81 = load i32, ptr %5, align 4
  ret i32 %81
}