; Function Attrs: nounwind uwtable
define range(i32 -173, 2) i32 @wolfSSL_SetServerID(ptr noundef captures(address_is_null) %0, ptr noundef %1, i32 noundef %2, i32 noundef %3) local_unnamed_addr #0 {
  %5 = alloca [20 x i8], align 16
  call void @llvm.lifetime.start.p0(i64 20, ptr nonnull %5) #22
  %6 = icmp eq ptr %0, null
  %7 = icmp eq ptr %1, null
  %or.cond = or i1 %6, %7
  %8 = icmp slt i32 %2, 1
  %or.cond3 = or i1 %or.cond, %8
  br i1 %or.cond3, label %25, label %9

9:                                                ; preds = %4
  %10 = icmp samesign ugt i32 %2, 20
  br i1 %10, label %11, label %13

11:                                               ; preds = %9
  %12 = call i32 @wc_ShaHash(ptr noundef nonnull %1, i32 noundef %2, ptr noundef nonnull %5) #22
  %.not = icmp eq i32 %12, 0
  br i1 %.not, label %13, label %25

13:                                               ; preds = %11, %9
  %.024 = phi ptr [ %1, %9 ], [ %5, %11 ]
  %.023 = phi i32 [ %2, %9 ], [ 20, %11 ]
  %14 = icmp eq i32 %3, 0
  br i1 %14, label %15, label %.critedge

15:                                               ; preds = %13
  %16 = call ptr @wolfSSL_GetSessionClient(ptr noundef nonnull %0, ptr noundef nonnull %.024, i32 noundef %.023)
  %.not29 = icmp eq ptr %16, null
  br i1 %.not29, label %.critedge, label %17

17:                                               ; preds = %15
  %18 = call i32 @wolfSSL_SetSession(ptr noundef nonnull %0, ptr noundef nonnull %16)
  %.not30.not = icmp eq i32 %18, 0
  br i1 %.not30.not, label %.critedge, label %25

.critedge:                                        ; preds = %15, %13, %17
  %19 = trunc nuw nsw i32 %.023 to i16
  %20 = getelementptr inbounds nuw i8, ptr %0, i64 624
  %21 = load ptr, ptr %20, align 16, !tbaa !76
  %22 = getelementptr inbounds nuw i8, ptr %21, i64 202
  store i16 %19, ptr %22, align 2, !tbaa !87
  %23 = getelementptr inbounds nuw i8, ptr %21, i64 204
  %24 = zext nneg i32 %.023 to i64
  call void @llvm.memcpy.p0.p0.i64(ptr nonnull align 4 %23, ptr nonnull align 1 %.024, i64 %24, i1 false)
  br label %25

25:                                               ; preds = %17, %.critedge, %11, %4
  %.022 = phi i32 [ -173, %4 ], [ 0, %11 ], [ 1, %.critedge ], [ 1, %17 ]
  call void @llvm.lifetime.end.p0(i64 20, ptr nonnull %5) #22
  ret i32 %.022
}